target datalayout = "e-m:e-p270:32:32-p271:32:32-p272:64:64-i64:64-i128:128-f80:128-n8:16:32:64-S128"
target triple = "x86_64-pc-linux-gnu"

%struct.dt_pthread_mutex_t = type { %union.pthread_mutex_t }
%union.pthread_mutex_t = type { %struct.__pthread_mutex_s }
%struct.__pthread_mutex_s = type { i32, i32, i32, i32, i32, i16, i16, %struct.__pthread_internal_list }
%struct.__pthread_internal_list = type { ptr, ptr }
%struct.dt_iop_module_t = type { i32, ptr, ptr, ptr, ptr, ptr, ptr, ptr, ptr, ptr, ptr, ptr, ptr, ptr, ptr, ptr, ptr, ptr, ptr, ptr, ptr, ptr, ptr, ptr, ptr, ptr, ptr, ptr, ptr, ptr, ptr, ptr, ptr, ptr, ptr, ptr, ptr, ptr, ptr, ptr, ptr, ptr, ptr, ptr, ptr, ptr, ptr, ptr, ptr, ptr, ptr, ptr, ptr, ptr, ptr, ptr, ptr, [20 x i8], i32, i32, i32, i32, i32, i32, i32, [8 x i8], [4 x float], [4 x float], [4 x float], [4 x float], [4 x float], [4 x float], ptr, %struct.dt_dev_histogram_stats_t, [4 x i32], i32, i32, ptr, i32, i32, ptr, ptr, i32, ptr, %struct.dt_pthread_mutex_t, ptr, ptr, ptr, ptr, %struct.anon, ptr, ptr, ptr, ptr, ptr, ptr, ptr, i32, ptr, ptr, ptr, ptr, ptr, ptr, ptr, i32, ptr, i32, [128 x i8], i32, ptr, ptr, i32, [12 x i8] }
%struct.dt_dev_histogram_stats_t = type { i32, i64, i32, i32 }
%struct.anon = type { %struct.anon.0, %struct.anon.1 }
%struct.anon.0 = type { ptr, ptr }
%struct.anon.1 = type { ptr, i32 }
%struct.dt_iop_buffer_dsc_t = type { i32, i32, i32, [6 x [6 x i8]], %struct.anon.2, [12 x i8], %struct.anon.3, [4 x float], i32, [12 x i8] }
%struct.anon.2 = type { i16, i16 }
%struct.anon.3 = type { i32, [12 x i8], [4 x float] }
%struct.dt_develop_tiling_t = type { float, float, float, float, i32, i32, i32, i32 }
%struct.dt_iop_roi_t = type { i32, i32, i32, i32, float }
%struct.dt_dev_pixelpipe_iop_t = type { ptr, ptr, ptr, ptr, i32, i32, %struct.dt_dev_histogram_collection_params_t, ptr, %struct.dt_dev_histogram_stats_t, [4 x i32], float, i32, i32, i64, i32, i32, %struct.dt_iop_roi_t, %struct.dt_iop_roi_t, %struct.dt_iop_roi_t, %struct.dt_iop_roi_t, i32, i32, %struct.dt_iop_buffer_dsc_t, %struct.dt_iop_buffer_dsc_t, ptr, [8 x i8] }
%struct.dt_dev_histogram_collection_params_t = type { ptr, i32 }
%struct.dt_dev_pixelpipe_t = type { %struct.dt_dev_pixelpipe_cache_t, i32, i64, ptr, i32, i32, float, i32, i32, [12 x i8], %struct.dt_iop_buffer_dsc_t, ptr, ptr, ptr, ptr, i32, i32, i32, i32, ptr, i64, i32, i32, float, float, float, i64, %struct.dt_pthread_mutex_t, %struct.dt_pthread_mutex_t, %struct.dt_pthread_mutex_t, i32, i32, i32, %struct.dt_dev_detail_mask_t, i32, i32, i32, i32, i32, i32, i32, i32, i32, i32, i32, i32, i32, i32, [8 x i8], %struct.dt_image_t, i32, ptr, i32, ptr, ptr, ptr, i32, ptr, i64, [8 x i8] }
%struct.dt_dev_pixelpipe_cache_t = type { i32, i64, i64, ptr, ptr, ptr, ptr, ptr, ptr, i64, i32, i64, i64, i32, i32, i32 }
%struct.dt_dev_detail_mask_t = type { %struct.dt_iop_roi_t, i64, ptr }
%struct.dt_image_t = type { i32, i32, float, float, float, float, float, float, float, [64 x i8], [64 x i8], [128 x i8], [64 x i8], [64 x i8], [64 x i8], [64 x i8], i64, i32, %union.dt_image_correction_data_t, [64 x i8], [64 x i8], [64 x i8], [128 x i8], i32, [256 x i8], i32, i32, i32, i32, i32, i32, i32, i32, i32, i32, float, i32, i32, i32, i32, i32, i32, i64, i64, i64, i64, i32, [12 x i8], %struct.dt_iop_buffer_dsc_t, [9 x float], ptr, i32, i32, %struct.dt_image_raw_parameters_t, %struct.dt_image_geoloc_t, %struct._color_harmony_t, i16, [4 x i16], i32, i32, float, float, [4 x float], [4 x [3 x float]], [4 x float], ptr, ptr, i32, i32, [8 x i8] }
%union.dt_image_correction_data_t = type { %struct.anon.5 }
%struct.anon.5 = type { i32, float, [11 x float], [11 x float], [11 x float], [11 x float], [11 x float] }
%struct.dt_image_raw_parameters_t = type { i32 }
%struct.dt_image_geoloc_t = type { double, double, double }
%struct._color_harmony_t = type { i32, i32, i32 }

@.str.1 = private unnamed_addr constant [9 x i8] c"demosaic\00", align 1

; Function Attrs: nounwind uwtable
define void @default_tiling_callback(ptr noundef %0, ptr noundef %1, ptr noundef %2, ptr noundef %3, ptr noundef %4) #0 {
  %6 = alloca ptr, align 8
  %7 = alloca ptr, align 8
  %8 = alloca ptr, align 8
  %9 = alloca ptr, align 8
  %10 = alloca ptr, align 8
  %11 = alloca float, align 4
  %12 = alloca i32, align 4
  store ptr %0, ptr %6, align 8, !tbaa !6
  store ptr %1, ptr %7, align 8, !tbaa !11
  store ptr %2, ptr %8, align 8, !tbaa !14
  store ptr %3, ptr %9, align 8, !tbaa !14
  store ptr %4, ptr %10, align 8, !tbaa !115
  call void @llvm.lifetime.start.p0(i64 4, ptr %11) #10
  %13 = load ptr, ptr %9, align 8, !tbaa !14
  %14 = getelementptr inbounds nuw %struct.dt_iop_roi_t, ptr %13, i32 0, i32 2
  %15 = load i32, ptr %14, align 4, !tbaa !46
  %16 = sitofp i32 %15 to float
  %17 = load ptr, ptr %9, align 8, !tbaa !14
  %18 = getelementptr inbounds nuw %struct.dt_iop_roi_t, ptr %17, i32 0, i32 3
  %19 = load i32, ptr %18, align 4, !tbaa !48
  %20 = sitofp i32 %19 to float
  %21 = fmul reassoc nsz arcp contract afn float %16, %20
  %22 = load ptr, ptr %8, align 8, !tbaa !14
  %23 = getelementptr inbounds nuw %struct.dt_iop_roi_t, ptr %22, i32 0, i32 2
  %24 = load i32, ptr %23, align 4, !tbaa !46
  %25 = sitofp i32 %24 to float
  %26 = load ptr, ptr %8, align 8, !tbaa !14
  %27 = getelementptr inbounds nuw %struct.dt_iop_roi_t, ptr %26, i32 0, i32 3
  %28 = load i32, ptr %27, align 4, !tbaa !48
  %29 = sitofp i32 %28 to float
  %30 = fmul reassoc nsz arcp contract afn float %25, %29
  %31 = fdiv reassoc nsz arcp contract afn float %21, %30
  store float %31, ptr %11, align 4, !tbaa !49
  %32 = load float, ptr %11, align 4, !tbaa !49
  %33 = fadd reassoc nsz arcp contract afn float 1.000000e+00, %32
  %34 = load ptr, ptr %10, align 8, !tbaa !115
  %35 = getelementptr inbounds nuw %struct.dt_develop_tiling_t, ptr %34, i32 0, i32 0
  store float %33, ptr %35, align 4, !tbaa !54
  %36 = load ptr, ptr %10, align 8, !tbaa !115
  %37 = getelementptr inbounds nuw %struct.dt_develop_tiling_t, ptr %36, i32 0, i32 0
  %38 = load float, ptr %37, align 4, !tbaa !54
  %39 = load ptr, ptr %10, align 8, !tbaa !115
  %40 = getelementptr inbounds nuw %struct.dt_develop_tiling_t, ptr %39, i32 0, i32 1
  store float %38, ptr %40, align 4, !tbaa !52
  %41 = load ptr, ptr %10, align 8, !tbaa !115
  %42 = getelementptr inbounds nuw %struct.dt_develop_tiling_t, ptr %41, i32 0, i32 2
  store float 1.000000e+00, ptr %42, align 4, !tbaa !55
  %43 = load ptr, ptr %10, align 8, !tbaa !115
  %44 = getelementptr inbounds nuw %struct.dt_develop_tiling_t, ptr %43, i32 0, i32 2
  %45 = load float, ptr %44, align 4, !tbaa !55
  %46 = load ptr, ptr %10, align 8, !tbaa !115
  %47 = getelementptr inbounds nuw %struct.dt_develop_tiling_t, ptr %46, i32 0, i32 3
  store float %45, ptr %47, align 4, !tbaa !50
  %48 = load ptr, ptr %10, align 8, !tbaa !115
  %49 = getelementptr inbounds nuw %struct.dt_develop_tiling_t, ptr %48, i32 0, i32 4
  store i32 0, ptr %49, align 4, !tbaa !56
  %50 = load ptr, ptr %10, align 8, !tbaa !115
  %51 = getelementptr inbounds nuw %struct.dt_develop_tiling_t, ptr %50, i32 0, i32 5
  store i32 0, ptr %51, align 4, !tbaa !106
  %52 = load ptr, ptr %10, align 8, !tbaa !115
  %53 = getelementptr inbounds nuw %struct.dt_develop_tiling_t, ptr %52, i32 0, i32 6
  store i32 1, ptr %53, align 4, !tbaa !104
  %54 = load ptr, ptr %10, align 8, !tbaa !115
  %55 = getelementptr inbounds nuw %struct.dt_develop_tiling_t, ptr %54, i32 0, i32 7
  store i32 1, ptr %55, align 4, !tbaa !105
  %56 = load ptr, ptr %6, align 8, !tbaa !6
  %57 = getelementptr inbounds nuw %struct.dt_iop_module_t, ptr %56, i32 0, i32 8
  %58 = load ptr, ptr %57, align 16, !tbaa !18
  %59 = call i32 %58()
  %60 = and i32 %59, 64
  %61 = icmp eq i32 %60, 64
  br i1 %61, label %62, label %65

62:                                               ; preds = %5
  %63 = load ptr, ptr %10, align 8, !tbaa !115
  %64 = getelementptr inbounds nuw %struct.dt_develop_tiling_t, ptr %63, i32 0, i32 5
  store i32 4, ptr %64, align 4, !tbaa !106
  br label %65

65:                                               ; preds = %62, %5
  %66 = load ptr, ptr %6, align 8, !tbaa !6
  %67 = getelementptr inbounds nuw %struct.dt_iop_module_t, ptr %66, i32 0, i32 59
  %68 = load i32, ptr %67, align 16, !tbaa !117
  %69 = load ptr, ptr %7, align 8, !tbaa !11
  %70 = getelementptr inbounds nuw %struct.dt_dev_pixelpipe_iop_t, ptr %69, i32 0, i32 1
  %71 = load ptr, ptr %70, align 8, !tbaa !35
  %72 = getelementptr inbounds nuw %struct.dt_dev_pixelpipe_t, ptr %71, i32 0, i32 54
  %73 = load ptr, ptr %72, align 16, !tbaa !118
  %74 = call i32 @dt_ioppr_get_iop_order(ptr noundef %73, ptr noundef @.str.1, i32 noundef 0)
  %75 = icmp sgt i32 %68, %74
  br i1 %75, label %76, label %77

76:                                               ; preds = %65
  store i32 1, ptr %12, align 4
  br label %105

77:                                               ; preds = %65
  %78 = load ptr, ptr %7, align 8, !tbaa !11
  %79 = getelementptr inbounds nuw %struct.dt_dev_pixelpipe_iop_t, ptr %78, i32 0, i32 1
  %80 = load ptr, ptr %79, align 8, !tbaa !35
  %81 = getelementptr inbounds nuw %struct.dt_dev_pixelpipe_t, ptr %80, i32 0, i32 10
  %82 = getelementptr inbounds nuw %struct.dt_iop_buffer_dsc_t, ptr %81, i32 0, i32 2
  %83 = load i32, ptr %82, align 8, !tbaa !119
  %84 = icmp ne i32 %83, 0
  br i1 %84, label %86, label %85

85:                                               ; preds = %77
  store i32 1, ptr %12, align 4
  br label %105

86:                                               ; preds = %77
  %87 = load ptr, ptr %7, align 8, !tbaa !11
  %88 = getelementptr inbounds nuw %struct.dt_dev_pixelpipe_iop_t, ptr %87, i32 0, i32 1
  %89 = load ptr, ptr %88, align 8, !tbaa !35
  %90 = getelementptr inbounds nuw %struct.dt_dev_pixelpipe_t, ptr %89, i32 0, i32 10
  %91 = getelementptr inbounds nuw %struct.dt_iop_buffer_dsc_t, ptr %90, i32 0, i32 2
  %92 = load i32, ptr %91, align 8, !tbaa !119
  %93 = icmp eq i32 %92, 9
  br i1 %93, label %94, label %99

94:                                               ; preds = %86
  %95 = load ptr, ptr %10, align 8, !tbaa !115
  %96 = getelementptr inbounds nuw %struct.dt_develop_tiling_t, ptr %95, i32 0, i32 6
  store i32 3, ptr %96, align 4, !tbaa !104
  %97 = load ptr, ptr %10, align 8, !tbaa !115
  %98 = getelementptr inbounds nuw %struct.dt_develop_tiling_t, ptr %97, i32 0, i32 7
  store i32 3, ptr %98, align 4, !tbaa !105
  br label %104

99:                                               ; preds = %86
  %100 = load ptr, ptr %10, align 8, !tbaa !115
  %101 = getelementptr inbounds nuw %struct.dt_develop_tiling_t, ptr %100, i32 0, i32 6
  store i32 2, ptr %101, align 4, !tbaa !104
  %102 = load ptr, ptr %10, align 8, !tbaa !115
  %103 = getelementptr inbounds nuw %struct.dt_develop_tiling_t, ptr %102, i32 0, i32 7
  store i32 2, ptr %103, align 4, !tbaa !105
  br label %104

104:                                              ; preds = %99, %94
  store i32 1, ptr %12, align 4
  br label %105

105:                                              ; preds = %104, %85, %76
  call void @llvm.lifetime.end.p0(i64 4, ptr %11) #10
  ret void
}