; Function Attrs: nounwind uwtable
define void @default_tiling_callback(ptr noundef readonly captures(none) %0, ptr noundef readonly captures(none) %1, ptr noundef readonly captures(none) %2, ptr noundef readonly captures(none) %3, ptr noundef writeonly captures(none) initializes((0, 32)) %4) local_unnamed_addr #0 {
  %6 = getelementptr inbounds nuw i8, ptr %3, i64 8
  %7 = load i32, ptr %6, align 4, !tbaa !39
  %8 = sitofp i32 %7 to float
  %9 = getelementptr inbounds nuw i8, ptr %3, i64 12
  %10 = load i32, ptr %9, align 4, !tbaa !41
  %11 = sitofp i32 %10 to float
  %12 = fmul reassoc nsz arcp contract afn float %11, %8
  %13 = getelementptr inbounds nuw i8, ptr %2, i64 8
  %14 = load i32, ptr %13, align 4, !tbaa !39
  %15 = sitofp i32 %14 to float
  %16 = getelementptr inbounds nuw i8, ptr %2, i64 12
  %17 = load i32, ptr %16, align 4, !tbaa !41
  %18 = sitofp i32 %17 to float
  %19 = fmul reassoc nsz arcp contract afn float %18, %15
  %20 = fdiv reassoc nsz arcp contract afn float %12, %19
  %21 = fadd reassoc nsz arcp contract afn float %20, 1.000000e+00
  store float %21, ptr %4, align 4, !tbaa !46
  %22 = getelementptr inbounds nuw i8, ptr %4, i64 4
  store float %21, ptr %22, align 4, !tbaa !44
  %23 = getelementptr inbounds nuw i8, ptr %4, i64 8
  store float 1.000000e+00, ptr %23, align 4, !tbaa !47
  %24 = getelementptr inbounds nuw i8, ptr %4, i64 12
  store float 1.000000e+00, ptr %24, align 4, !tbaa !42
  %25 = getelementptr inbounds nuw i8, ptr %4, i64 16
  store i32 0, ptr %25, align 4, !tbaa !48
  %26 = getelementptr inbounds nuw i8, ptr %4, i64 20
  store i32 0, ptr %26, align 4, !tbaa !98
  %27 = getelementptr inbounds nuw i8, ptr %4, i64 24
  store i32 1, ptr %27, align 4, !tbaa !96
  %28 = getelementptr inbounds nuw i8, ptr %4, i64 28
  store i32 1, ptr %28, align 4, !tbaa !97
  %29 = getelementptr inbounds nuw i8, ptr %0, i64 64
  %30 = load ptr, ptr %29, align 16, !tbaa !6
  %31 = tail call i32 %30() #12
  %32 = and i32 %31, 64
  %.not = icmp eq i32 %32, 0
  br i1 %.not, label %34, label %33

33:                                               ; preds = %5
  store i32 4, ptr %26, align 4, !tbaa !98
  br label %34

34:                                               ; preds = %33, %5
  %35 = getelementptr inbounds nuw i8, ptr %0, i64 480
  %36 = load i32, ptr %35, align 16, !tbaa !114
  %37 = getelementptr inbounds nuw i8, ptr %1, i64 8
  %38 = load ptr, ptr %37, align 8, !tbaa !28
  %39 = getelementptr inbounds nuw i8, ptr %38, i64 2528
  %40 = load ptr, ptr %39, align 16, !tbaa !115
  %41 = tail call i32 @dt_ioppr_get_iop_order(ptr noundef %40, ptr noundef nonnull @.str.1, i32 noundef 0) #12
  %42 = icmp sgt i32 %36, %41
  br i1 %42, label %49, label %43

43:                                               ; preds = %34
  %44 = load ptr, ptr %37, align 8, !tbaa !28
  %45 = getelementptr inbounds nuw i8, ptr %44, i64 184
  %46 = load i32, ptr %45, align 8, !tbaa !116
  switch i32 %46, label %47 [
    i32 0, label %49
    i32 9, label %48
  ]

47:                                               ; preds = %43
  br label %48

48:                                               ; preds = %43, %47
  %storemerge = phi i32 [ 2, %47 ], [ 3, %43 ]
  store i32 %storemerge, ptr %27, align 4, !tbaa !96
  store i32 %storemerge, ptr %28, align 4, !tbaa !97
  br label %49

49:                                               ; preds = %43, %34, %48
  ret void
}